target datalayout = "e-m:e-p270:32:32-p271:32:32-p272:64:64-i64:64-i128:128-f80:128-n8:16:32:64-S128"
target triple = "x86_64-pc-linux-gnu"

%struct.slurm_node_alias_addrs_t = type { i64, ptr, ptr, i32, ptr }
%struct.sockaddr_storage = type { i16, [118 x i8], i64 }

@.str = private unnamed_addr constant [33 x i8] c"hostlist_create error for %s: %m\00", align 1
@.str.1 = private unnamed_addr constant [13 x i8] c"%s: [%s]:%d\0A\00", align 1
@.str.2 = private unnamed_addr constant [11 x i8] c"%s: %s:%d\0A\00", align 1

; Function Attrs: nounwind uwtable
define dso_local void @scontrol_getaddrs(ptr noundef %0) #0 {
  %2 = alloca ptr, align 8
  %3 = alloca ptr, align 8
  %4 = alloca ptr, align 8
  %5 = alloca ptr, align 8
  %6 = alloca i32, align 4
  %7 = alloca i32, align 4
  %8 = alloca [46 x i8], align 16
  %9 = alloca i16, align 2
  %10 = alloca ptr, align 8
  store ptr %0, ptr %2, align 8
  call void @llvm.lifetime.start.p0(i64 8, ptr %3) #7
  store ptr null, ptr %3, align 8
  %11 = load ptr, ptr %2, align 8
  %12 = call i32 @slurm_get_node_alias_addrs(ptr noundef %11, ptr noundef %3)
  %13 = icmp ne i32 %12, 0
  br i1 %13, label %64, label %14

14:                                               ; preds = %1
  call void @llvm.lifetime.start.p0(i64 8, ptr %4) #7
  store ptr null, ptr %4, align 8
  call void @llvm.lifetime.start.p0(i64 8, ptr %5) #7
  store ptr null, ptr %5, align 8
  call void @llvm.lifetime.start.p0(i64 4, ptr %6) #7
  store i32 0, ptr %6, align 4
  %15 = load ptr, ptr %3, align 8
  %16 = getelementptr inbounds nuw %struct.slurm_node_alias_addrs_t, ptr %15, i32 0, i32 4
  %17 = load ptr, ptr %16, align 8
  %18 = call ptr @hostlist_create(ptr noundef %17)
  store ptr %18, ptr %5, align 8
  %19 = icmp ne ptr %18, null
  br i1 %19, label %23, label %20

20:                                               ; preds = %14
  %21 = load ptr, ptr %2, align 8
  %22 = call i32 (ptr, ...) @error(ptr noundef @.str, ptr noundef %21)
  store i32 1, ptr %7, align 4
  br label %61

23:                                               ; preds = %14
  br label %24

24:                                               ; preds = %57, %23
  %25 = load ptr, ptr %5, align 8
  %26 = call ptr @hostlist_shift(ptr noundef %25)
  store ptr %26, ptr %4, align 8
  %27 = icmp ne ptr %26, null
  br i1 %27, label %28, label %59

28:                                               ; preds = %24
  call void @llvm.lifetime.start.p0(i64 46, ptr %8) #7
  call void @llvm.memset.p0.i64(ptr align 16 %8, i8 0, i64 46, i1 false)
  call void @llvm.lifetime.start.p0(i64 2, ptr %9) #7
  store i16 0, ptr %9, align 2
  call void @llvm.lifetime.start.p0(i64 8, ptr %10) #7
  %29 = load ptr, ptr %3, align 8
  %30 = getelementptr inbounds nuw %struct.slurm_node_alias_addrs_t, ptr %29, i32 0, i32 2
  %31 = load ptr, ptr %30, align 8
  %32 = load i32, ptr %6, align 4
  %33 = add nsw i32 %32, 1
  store i32 %33, ptr %6, align 4
  %34 = sext i32 %32 to i64
  %35 = getelementptr inbounds %struct.sockaddr_storage, ptr %31, i64 %34
  store ptr %35, ptr %10, align 8
  %36 = load ptr, ptr %10, align 8
  %37 = getelementptr inbounds [46 x i8], ptr %8, i64 0, i64 0
  call void @slurm_get_ip_str(ptr noundef %36, ptr noundef %37, i32 noundef 46)
  %38 = load ptr, ptr %10, align 8
  %39 = call zeroext i16 @slurm_get_port(ptr noundef %38)
  store i16 %39, ptr %9, align 2
  %40 = load ptr, ptr %10, align 8
  %41 = getelementptr inbounds nuw %struct.sockaddr_storage, ptr %40, i32 0, i32 0
  %42 = load i16, ptr %41, align 8
  %43 = zext i16 %42 to i32
  %44 = icmp eq i32 %43, 10
  br i1 %44, label %45, label %51

45:                                               ; preds = %28
  %46 = load ptr, ptr %4, align 8
  %47 = getelementptr inbounds [46 x i8], ptr %8, i64 0, i64 0
  %48 = load i16, ptr %9, align 2
  %49 = zext i16 %48 to i32
  %50 = call i32 (ptr, ...) @printf(ptr noundef @.str.1, ptr noundef %46, ptr noundef %47, i32 noundef %49)
  br label %57

51:                                               ; preds = %28
  %52 = load ptr, ptr %4, align 8
  %53 = getelementptr inbounds [46 x i8], ptr %8, i64 0, i64 0
  %54 = load i16, ptr %9, align 2
  %55 = zext i16 %54 to i32
  %56 = call i32 (ptr, ...) @printf(ptr noundef @.str.2, ptr noundef %52, ptr noundef %53, i32 noundef %55)
  br label %57

57:                                               ; preds = %51, %45
  %58 = load ptr, ptr %4, align 8
  call void @free(ptr noundef %58) #7
  call void @llvm.lifetime.end.p0(i64 8, ptr %10) #7
  call void @llvm.lifetime.end.p0(i64 2, ptr %9) #7
  call void @llvm.lifetime.end.p0(i64 46, ptr %8) #7
  br label %24, !llvm.loop !8

59:                                               ; preds = %24
  %60 = load ptr, ptr %5, align 8
  call void @hostlist_destroy(ptr noundef %60)
  store i32 0, ptr %7, align 4
  br label %61

61:                                               ; preds = %59, %20
  call void @llvm.lifetime.end.p0(i64 4, ptr %6) #7
  call void @llvm.lifetime.end.p0(i64 8, ptr %5) #7
  call void @llvm.lifetime.end.p0(i64 8, ptr %4) #7
  %62 = load i32, ptr %7, align 4
  switch i32 %62, label %66 [
    i32 0, label %63
  ]

63:                                               ; preds = %61
  br label %64

64:                                               ; preds = %63, %1
  %65 = load ptr, ptr %3, align 8
  call void @slurm_free_node_alias_addrs(ptr noundef %65)
  store i32 0, ptr %7, align 4
  br label %66

66:                                               ; preds = %64, %61
  call void @llvm.lifetime.end.p0(i64 8, ptr %3) #7
  %67 = load i32, ptr %7, align 4
  switch i32 %67, label %69 [
    i32 0, label %68
    i32 1, label %68
  ]

68:                                               ; preds = %66, %66
  ret void

69:                                               ; preds = %66
  unreachable
}