; Function Attrs: nounwind uwtable
define dso_local void @scontrol_getaddrs(ptr noundef %0) local_unnamed_addr #0 {
  %2 = alloca ptr, align 8
  %3 = alloca [46 x i8], align 16
  call void @llvm.lifetime.start.p0(i64 8, ptr nonnull %2) #9
  store ptr null, ptr %2, align 8
  %4 = call i32 @slurm_get_node_alias_addrs(ptr noundef %0, ptr noundef nonnull %2) #9
  %.not = icmp eq i32 %4, 0
  br i1 %.not, label %5, label %23

5:                                                ; preds = %1
  %6 = load ptr, ptr %2, align 8
  %7 = getelementptr inbounds nuw i8, ptr %6, i64 32
  %8 = load ptr, ptr %7, align 8
  %9 = call ptr @hostlist_create(ptr noundef %8) #9
  %.not15.not = icmp eq ptr %9, null
  br i1 %.not15.not, label %.thread, label %.preheader

.preheader:                                       ; preds = %5
  %10 = call ptr @hostlist_shift(ptr noundef nonnull %9) #9
  %.not1617 = icmp eq ptr %10, null
  br i1 %.not1617, label %._crit_edge, label %.lr.ph

.thread:                                          ; preds = %5
  %11 = call i32 (ptr, ...) @error(ptr noundef nonnull @.str, ptr noundef %0) #9
  br label %25

.lr.ph:                                           ; preds = %.preheader, %.lr.ph
  %indvars.iv = phi i64 [ %indvars.iv.next, %.lr.ph ], [ 0, %.preheader ]
  %12 = phi ptr [ %22, %.lr.ph ], [ %10, %.preheader ]
  call void @llvm.lifetime.start.p0(i64 46, ptr nonnull %3) #9
  call void @llvm.memset.p0.i64(ptr noundef nonnull align 16 dereferenceable(46) %3, i8 0, i64 46, i1 false)
  %13 = load ptr, ptr %2, align 8
  %14 = getelementptr inbounds nuw i8, ptr %13, i64 16
  %15 = load ptr, ptr %14, align 8
  %indvars.iv.next = add nuw nsw i64 %indvars.iv, 1
  %16 = getelementptr inbounds nuw %struct.sockaddr_storage, ptr %15, i64 %indvars.iv
  call void @slurm_get_ip_str(ptr noundef %16, ptr noundef nonnull %3, i32 noundef 46) #9
  %17 = call zeroext i16 @slurm_get_port(ptr noundef %16) #9
  %18 = load i16, ptr %16, align 8
  %19 = icmp eq i16 %18, 10
  %20 = zext i16 %17 to i32
  %.str.1..str.2 = select i1 %19, ptr @.str.1, ptr @.str.2
  %21 = call i32 (ptr, ...) @printf(ptr noundef nonnull dereferenceable(1) %.str.1..str.2, ptr noundef nonnull %12, ptr noundef nonnull %3, i32 noundef %20)
  call void @free(ptr noundef nonnull %12) #9
  call void @llvm.lifetime.end.p0(i64 46, ptr nonnull %3) #9
  %22 = call ptr @hostlist_shift(ptr noundef nonnull %9) #9
  %.not16 = icmp eq ptr %22, null
  br i1 %.not16, label %._crit_edge, label %.lr.ph, !llvm.loop !8

._crit_edge:                                      ; preds = %.lr.ph, %.preheader
  call void @hostlist_destroy(ptr noundef nonnull %9) #9
  br label %23

23:                                               ; preds = %._crit_edge, %1
  %24 = load ptr, ptr %2, align 8
  call void @slurm_free_node_alias_addrs(ptr noundef %24) #9
  br label %25

25:                                               ; preds = %.thread, %23
  call void @llvm.lifetime.end.p0(i64 8, ptr nonnull %2) #9
  ret void
}